target datalayout = "e-m:e-p270:32:32-p271:32:32-p272:64:64-i64:64-i128:128-f80:128-n8:16:32:64-S128"
target triple = "x86_64-pc-linux-gnu"

%struct.pmix_globals_t = type { i32, %struct.pmix_proc, %struct.pmix_value, %struct.pmix_value, ptr, i32, i32, ptr, i32, i32, i32, i32, i32, ptr, ptr, i32, %struct.pmix_events_t, i8, i8, %struct.timeval, %struct.pmix_list_t, %struct.pmix_pointer_array_t, i32, i32, %struct.pmix_hotel_t, i8, %struct.pmix_list_t, i8, i8, i8, i64, %struct.pmix_list_t, %struct.pmix_topology_t, %struct.pmix_cpuset_t, i8, i8, %struct.pmix_iof_flags_t, %struct.pmix_keyindex_t }
%struct.pmix_proc = type { [256 x i8], i32 }
%struct.pmix_value = type { i16, %union.anon }
%union.anon = type { %struct.pmix_envar_t }
%struct.pmix_envar_t = type { ptr, ptr, i8 }
%struct.pmix_events_t = type { %struct.pmix_object_t, i64, ptr, ptr, %struct.pmix_list_t, %struct.pmix_list_t, %struct.pmix_list_t, %struct.pmix_list_t }
%struct.pmix_object_t = type { %union.pthread_mutex_t, ptr, i32, %struct.pmix_tma }
%union.pthread_mutex_t = type { %struct.__pthread_mutex_s }
%struct.__pthread_mutex_s = type { i32, i32, i32, i32, i32, i16, i16, %struct.__pthread_internal_list }
%struct.__pthread_internal_list = type { ptr, ptr }
%struct.pmix_tma = type { ptr, ptr, ptr, ptr, ptr, ptr, ptr, ptr }
%struct.timeval = type { i64, i64 }
%struct.pmix_pointer_array_t = type { %struct.pmix_object_t, i32, i32, i32, i32, i32, ptr, ptr }
%struct.pmix_hotel_t = type { %struct.pmix_object_t, i32, ptr, %struct.timeval, ptr, ptr, ptr, ptr, i32 }
%struct.pmix_list_t = type { %struct.pmix_object_t, %struct.pmix_list_item_t, i64 }
%struct.pmix_list_item_t = type { %struct.pmix_object_t, ptr, ptr, i32 }
%struct.pmix_topology_t = type { ptr, ptr }
%struct.pmix_cpuset_t = type { ptr, ptr }
%struct.pmix_iof_flags_t = type { i8, i8, i8, i8, i8, i8, i8, ptr, ptr, i8, i8, i8, i8, i8, i8 }
%struct.pmix_keyindex_t = type { %struct.pmix_object_t, ptr, i32 }
%struct.pmix_peer_t = type { %struct.pmix_object_t, ptr, ptr, %struct.pmix_proc_type_t, i16, i32, i32, i32, i8, %struct.event, i8, %struct.event, i8, %struct.pmix_list_t, ptr, ptr, i32, %struct.pmix_epilog_t }
%struct.pmix_proc_type_t = type { i32, i8, i8, i8, i8 }
%struct.event = type { %struct.event_callback, %union.anon.1, i32, ptr, %union.anon.3, i16, i16, %struct.timeval }
%struct.event_callback = type { %struct.anon, i16, i8, i8, %union.anon.0, ptr }
%struct.anon = type { ptr, ptr }
%union.anon.0 = type { ptr }
%union.anon.1 = type { %struct.anon.2 }
%struct.anon.2 = type { ptr, ptr }
%union.anon.3 = type { %struct.anon.4 }
%struct.anon.4 = type { %struct.anon.5, %struct.timeval }
%struct.anon.5 = type { ptr, ptr }
%struct.pmix_epilog_t = type { i32, i32, %struct.pmix_list_t, %struct.pmix_list_t, %struct.pmix_list_t }
%struct.pmix_namespace_t = type { %struct.pmix_list_item_t, ptr, %struct.anon.8, i32, i64, i64, i8, i8, ptr, i64, i64, %struct.pmix_list_t, %struct.pmix_personality_t, %struct.pmix_epilog_t, %struct.pmix_list_t, %struct.pmix_iof_flags_t, %struct.pmix_list_t }
%struct.anon.8 = type { i8, i8, i8 }
%struct.pmix_personality_t = type { i8, ptr, ptr, ptr }
%struct.pmix_bfrops_module_t = type { ptr, ptr, ptr, ptr, ptr, ptr, ptr, ptr, ptr, ptr, ptr, ptr, ptr }

@pmix_globals = external global %struct.pmix_globals_t, align 8

; Function Attrs: nounwind uwtable
define i32 @PMIx_Data_copy(ptr noundef %0, ptr noundef %1, i16 noundef zeroext %2) #0 {
  %4 = alloca ptr, align 8
  %5 = alloca ptr, align 8
  %6 = alloca i16, align 2
  %7 = alloca i32, align 4
  store ptr %0, ptr %4, align 8, !tbaa !10
  store ptr %1, ptr %5, align 8, !tbaa !10
  store i16 %2, ptr %6, align 2, !tbaa !13
  call void @llvm.lifetime.start.p0(i64 4, ptr %7) #12
  %8 = load ptr, ptr getelementptr inbounds nuw (%struct.pmix_globals_t, ptr @pmix_globals, i32 0, i32 4), align 8, !tbaa !26
  %9 = getelementptr inbounds nuw %struct.pmix_peer_t, ptr %8, i32 0, i32 1
  %10 = load ptr, ptr %9, align 8, !tbaa !45
  %11 = getelementptr inbounds nuw %struct.pmix_namespace_t, ptr %10, i32 0, i32 12
  %12 = getelementptr inbounds nuw %struct.pmix_personality_t, ptr %11, i32 0, i32 1
  %13 = load ptr, ptr %12, align 8, !tbaa !74
  %14 = getelementptr inbounds nuw %struct.pmix_bfrops_module_t, ptr %13, i32 0, i32 5
  %15 = load ptr, ptr %14, align 8, !tbaa !115
  %16 = load ptr, ptr %4, align 8, !tbaa !10
  %17 = load ptr, ptr %5, align 8, !tbaa !10
  %18 = load i16, ptr %6, align 2, !tbaa !13
  %19 = call i32 %15(ptr noundef %16, ptr noundef %17, i16 noundef zeroext %18)
  store i32 %19, ptr %7, align 4, !tbaa !11
  %20 = load i32, ptr %7, align 4, !tbaa !11
  call void @llvm.lifetime.end.p0(i64 4, ptr %7) #12
  ret i32 %20
}