; Function Attrs: nounwind uwtable
define i32 @PMIx_Data_copy(ptr noundef %0, ptr noundef %1, i16 noundef zeroext %2) local_unnamed_addr #0 {
  %4 = load ptr, ptr getelementptr inbounds nuw (i8, ptr @pmix_globals, i64 328), align 8, !tbaa !21
  %5 = getelementptr inbounds nuw i8, ptr %4, i64 120
  %6 = load ptr, ptr %5, align 8, !tbaa !42
  %7 = getelementptr inbounds nuw i8, ptr %6, i64 488
  %8 = load ptr, ptr %7, align 8, !tbaa !71
  %9 = getelementptr inbounds nuw i8, ptr %8, i64 40
  %10 = load ptr, ptr %9, align 8, !tbaa !101
  %11 = tail call i32 %10(ptr noundef %0, ptr noundef %1, i16 noundef zeroext %2) #13
  ret i32 %11
}